target datalayout = "e-m:e-p270:32:32-p271:32:32-p272:64:64-i64:64-i128:128-f80:128-n8:16:32:64-S128"
target triple = "x86_64-pc-linux-gnu"

%struct.Aig_Obj_t_ = type { %union.anon, ptr, ptr, i64, i32, i32, %union.anon.0 }
%union.anon = type { ptr }
%union.anon.0 = type { ptr }
%struct.Aig_Man_t_ = type { ptr, ptr, ptr, ptr, ptr, ptr, ptr, %struct.Aig_Obj_t_, i32, i32, i32, i32, i32, i32, [7 x i32], i32, ptr, i32, ptr, i32, ptr, i32, i32, i32, ptr, i32, i32, i32, i32, i32, ptr, ptr, i32, ptr, ptr, i32, ptr, ptr, i32, i32, i32, ptr, ptr, ptr, ptr, ptr, ptr, ptr, ptr, ptr, ptr, ptr, ptr, ptr, ptr, i32, ptr, ptr, ptr, ptr, i32, i64, i64, i64, ptr, ptr }
%struct.Vec_Int_t_ = type { i32, i32, ptr }
%struct.Abc_Cex_t_ = type { i32, i32, i32, i32, i32, [0 x i32] }
%struct.timespec = type { i64, i64 }

@.str = private unnamed_addr constant [57 x i8] c"Counter-example generation in command \22int\22 has failed.\0A\00", align 1
@.str.1 = private unnamed_addr constant [56 x i8] c"Use command \22bmc2\22 to produce a valid counter-example.\0A\00", align 1
@.str.2 = private unnamed_addr constant [72 x i8] c"Inter_ManGetCounterExample(): Counter-example verification has FAILED.\0A\00", align 1
@.str.3 = private unnamed_addr constant [5 x i8] c"%s =\00", align 1
@.str.4 = private unnamed_addr constant [28 x i8] c"Total ctrex generation time\00", align 1
@.str.5 = private unnamed_addr constant [11 x i8] c"%9.2f sec\0A\00", align 1

; Function Attrs: inlinehint nounwind uwtable
define internal void @Abc_InfoSetBit(ptr noundef %0, i32 noundef %1) #3 {
  %3 = alloca ptr, align 8
  %4 = alloca i32, align 4
  store ptr %0, ptr %3, align 8, !tbaa !52
  store i32 %1, ptr %4, align 4, !tbaa !8
  %5 = load i32, ptr %4, align 4, !tbaa !8
  %6 = and i32 %5, 31
  %7 = shl i32 1, %6
  %8 = load ptr, ptr %3, align 8, !tbaa !52
  %9 = load i32, ptr %4, align 4, !tbaa !8
  %10 = ashr i32 %9, 5
  %11 = sext i32 %10 to i64
  %12 = getelementptr inbounds i32, ptr %8, i64 %11
  %13 = load i32, ptr %12, align 4, !tbaa !8
  %14 = or i32 %13, %7
  store i32 %14, ptr %12, align 4, !tbaa !8
  ret void
}

; Function Attrs: inlinehint nounwind uwtable
define internal i32 @Vec_IntSize(ptr noundef %0) #3 {
  %2 = alloca ptr, align 8
  store ptr %0, ptr %2, align 8, !tbaa !46
  %3 = load ptr, ptr %2, align 8, !tbaa !46
  %4 = getelementptr inbounds nuw %struct.Vec_Int_t_, ptr %3, i32 0, i32 1
  %5 = load i32, ptr %4, align 4, !tbaa !51
  ret i32 %5
}

; Function Attrs: inlinehint nounwind uwtable
define internal i32 @Saig_ManPiNum(ptr noundef %0) #3 {
  %2 = alloca ptr, align 8
  store ptr %0, ptr %2, align 8, !tbaa !3
  %3 = load ptr, ptr %2, align 8, !tbaa !3
  %4 = getelementptr inbounds nuw %struct.Aig_Man_t_, ptr %3, i32 0, i32 9
  %5 = load i32, ptr %4, align 4, !tbaa !39
  ret i32 %5
}

; Function Attrs: inlinehint nounwind uwtable
define internal i32 @Saig_ManRegNum(ptr noundef %0) #3 {
  %2 = alloca ptr, align 8
  store ptr %0, ptr %2, align 8, !tbaa !3
  %3 = load ptr, ptr %2, align 8, !tbaa !3
  %4 = getelementptr inbounds nuw %struct.Aig_Man_t_, ptr %3, i32 0, i32 8
  %5 = load i32, ptr %4, align 8, !tbaa !34
  ret i32 %5
}

; Function Attrs: inlinehint nounwind uwtable
define internal void @Vec_IntFree(ptr noundef %0) #3 {
  %2 = alloca ptr, align 8
  store ptr %0, ptr %2, align 8, !tbaa !46
  %3 = load ptr, ptr %2, align 8, !tbaa !46
  %4 = getelementptr inbounds nuw %struct.Vec_Int_t_, ptr %3, i32 0, i32 2
  %5 = load ptr, ptr %4, align 8, !tbaa !49
  %6 = icmp ne ptr %5, null
  br i1 %6, label %7, label %13

7:                                                ; preds = %1
  %8 = load ptr, ptr %2, align 8, !tbaa !46
  %9 = getelementptr inbounds nuw %struct.Vec_Int_t_, ptr %8, i32 0, i32 2
  %10 = load ptr, ptr %9, align 8, !tbaa !49
  call void @free(ptr noundef %10) #7
  %11 = load ptr, ptr %2, align 8, !tbaa !46
  %12 = getelementptr inbounds nuw %struct.Vec_Int_t_, ptr %11, i32 0, i32 2
  store ptr null, ptr %12, align 8, !tbaa !49
  br label %14

13:                                               ; preds = %1
  br label %14

14:                                               ; preds = %13, %7
  %15 = load ptr, ptr %2, align 8, !tbaa !46
  %16 = icmp ne ptr %15, null
  br i1 %16, label %17, label %19

17:                                               ; preds = %14
  %18 = load ptr, ptr %2, align 8, !tbaa !46
  call void @free(ptr noundef %18) #7
  store ptr null, ptr %2, align 8, !tbaa !46
  br label %20

19:                                               ; preds = %14
  br label %20

20:                                               ; preds = %19, %17
  ret void
}

; Function Attrs: inlinehint nounwind uwtable
define internal i64 @Abc_Clock() #3 {
  %1 = alloca i64, align 8
  %2 = alloca %struct.timespec, align 8
  %3 = alloca i32, align 4
  %4 = alloca i64, align 8
  call void @llvm.lifetime.start.p0(i64 16, ptr %2) #7
  %5 = call i32 @clock_gettime(i32 noundef 1, ptr noundef %2) #7
  %6 = icmp slt i32 %5, 0
  br i1 %6, label %7, label %8

7:                                                ; preds = %0
  store i64 -1, ptr %1, align 8
  store i32 1, ptr %3, align 4
  br label %19

8:                                                ; preds = %0
  call void @llvm.lifetime.start.p0(i64 8, ptr %4) #7
  %9 = getelementptr inbounds nuw %struct.timespec, ptr %2, i32 0, i32 0
  %10 = load i64, ptr %9, align 8, !tbaa !63
  %11 = mul nsw i64 %10, 1000000
  store i64 %11, ptr %4, align 8, !tbaa !43
  %12 = getelementptr inbounds nuw %struct.timespec, ptr %2, i32 0, i32 1
  %13 = load i64, ptr %12, align 8, !tbaa !65
  %14 = mul nsw i64 %13, 1000000
  %15 = sdiv i64 %14, 1000000000
  %16 = load i64, ptr %4, align 8, !tbaa !43
  %17 = add nsw i64 %16, %15
  store i64 %17, ptr %4, align 8, !tbaa !43
  %18 = load i64, ptr %4, align 8, !tbaa !43
  store i64 %18, ptr %1, align 8
  store i32 1, ptr %3, align 4
  call void @llvm.lifetime.end.p0(i64 8, ptr %4) #7
  br label %19

19:                                               ; preds = %8, %7
  call void @llvm.lifetime.end.p0(i64 16, ptr %2) #7
  %20 = load i64, ptr %1, align 8
  ret i64 %20
}

; Function Attrs: nounwind uwtable
define ptr @Inter_ManGetCounterExample(ptr noundef %0, i32 noundef %1, i32 noundef %2) #0 {
  %4 = alloca ptr, align 8
  %5 = alloca ptr, align 8
  %6 = alloca i32, align 4
  %7 = alloca i32, align 4
  %8 = alloca i32, align 4
  %9 = alloca ptr, align 8
  %10 = alloca ptr, align 8
  %11 = alloca ptr, align 8
  %12 = alloca ptr, align 8
  %13 = alloca i32, align 4
  %14 = alloca i64, align 8
  %15 = alloca ptr, align 8
  %16 = alloca i32, align 4
  %17 = alloca i32, align 4
  %18 = alloca ptr, align 8
  store ptr %0, ptr %5, align 8, !tbaa !3
  store i32 %1, ptr %6, align 4, !tbaa !8
  store i32 %2, ptr %7, align 4, !tbaa !8
  call void @llvm.lifetime.start.p0(i64 4, ptr %8) #7
  store i32 1000000, ptr %8, align 4, !tbaa !8
  call void @llvm.lifetime.start.p0(i64 8, ptr %9) #7
  store ptr null, ptr %9, align 8, !tbaa !42
  call void @llvm.lifetime.start.p0(i64 8, ptr %10) #7
  call void @llvm.lifetime.start.p0(i64 8, ptr %11) #7
  call void @llvm.lifetime.start.p0(i64 8, ptr %12) #7
  call void @llvm.lifetime.start.p0(i64 4, ptr %13) #7
  call void @llvm.lifetime.start.p0(i64 8, ptr %14) #7
  %19 = call i64 @Abc_Clock()
  store i64 %19, ptr %14, align 8, !tbaa !43
  call void @llvm.lifetime.start.p0(i64 8, ptr %15) #7
  %20 = load ptr, ptr %5, align 8, !tbaa !3
  %21 = load i32, ptr %6, align 4, !tbaa !8
  %22 = call ptr @Inter_ManFramesBmc(ptr noundef %20, i32 noundef %21)
  store ptr %22, ptr %10, align 8, !tbaa !3
  %23 = load ptr, ptr %10, align 8, !tbaa !3
  %24 = call ptr @Cnf_Derive(ptr noundef %23, i32 noundef 0)
  store ptr %24, ptr %12, align 8, !tbaa !44
  %25 = load ptr, ptr %12, align 8, !tbaa !44
  call void @Cnf_DataTranformPolarity(ptr noundef %25, i32 noundef 0)
  %26 = load ptr, ptr %12, align 8, !tbaa !44
  %27 = load ptr, ptr %10, align 8, !tbaa !3
  %28 = call ptr @Cnf_DataCollectPiSatNums(ptr noundef %26, ptr noundef %27)
  store ptr %28, ptr %15, align 8, !tbaa !46
  %29 = load ptr, ptr %10, align 8, !tbaa !3
  call void @Aig_ManStop(ptr noundef %29)
  %30 = load ptr, ptr %12, align 8, !tbaa !44
  %31 = call ptr @Cnf_DataWriteIntoSolver(ptr noundef %30, i32 noundef 1, i32 noundef 0)
  store ptr %31, ptr %11, align 8, !tbaa !47
  %32 = load ptr, ptr %12, align 8, !tbaa !44
  call void @Cnf_DataFree(ptr noundef %32)
  %33 = load ptr, ptr %11, align 8, !tbaa !47
  %34 = icmp eq ptr %33, null
  br i1 %34, label %35, label %39

35:                                               ; preds = %3
  %36 = call i32 (ptr, ...) @printf(ptr noundef @.str)
  %37 = call i32 (ptr, ...) @printf(ptr noundef @.str.1)
  %38 = load ptr, ptr %15, align 8, !tbaa !46
  call void @Vec_IntFree(ptr noundef %38)
  store ptr null, ptr %4, align 8
  store i32 1, ptr %16, align 4
  br label %128

39:                                               ; preds = %3
  %40 = load ptr, ptr %11, align 8, !tbaa !47
  %41 = call i32 @sat_solver_simplify(ptr noundef %40)
  store i32 %41, ptr %13, align 4, !tbaa !8
  %42 = load i32, ptr %13, align 4, !tbaa !8
  %43 = icmp eq i32 %42, 0
  br i1 %43, label %44, label %47

44:                                               ; preds = %39
  %45 = load ptr, ptr %15, align 8, !tbaa !46
  call void @Vec_IntFree(ptr noundef %45)
  %46 = load ptr, ptr %11, align 8, !tbaa !47
  call void @sat_solver_delete(ptr noundef %46)
  store ptr null, ptr %4, align 8
  store i32 1, ptr %16, align 4
  br label %128

47:                                               ; preds = %39
  %48 = load ptr, ptr %11, align 8, !tbaa !47
  %49 = load i32, ptr %8, align 4, !tbaa !8
  %50 = sext i32 %49 to i64
  %51 = call i32 @sat_solver_solve(ptr noundef %48, ptr noundef null, ptr noundef null, i64 noundef %50, i64 noundef 0, i64 noundef 0, i64 noundef 0)
  store i32 %51, ptr %13, align 4, !tbaa !8
  %52 = load i32, ptr %13, align 4, !tbaa !8
  %53 = icmp eq i32 %52, 1
  br i1 %53, label %54, label %106

54:                                               ; preds = %47
  call void @llvm.lifetime.start.p0(i64 4, ptr %17) #7
  call void @llvm.lifetime.start.p0(i64 8, ptr %18) #7
  %55 = load ptr, ptr %11, align 8, !tbaa !47
  %56 = load ptr, ptr %15, align 8, !tbaa !46
  %57 = getelementptr inbounds nuw %struct.Vec_Int_t_, ptr %56, i32 0, i32 2
  %58 = load ptr, ptr %57, align 8, !tbaa !49
  %59 = load ptr, ptr %15, align 8, !tbaa !46
  %60 = getelementptr inbounds nuw %struct.Vec_Int_t_, ptr %59, i32 0, i32 1
  %61 = load i32, ptr %60, align 4, !tbaa !51
  %62 = call ptr @Sat_SolverGetModel(ptr noundef %55, ptr noundef %58, i32 noundef %61)
  store ptr %62, ptr %18, align 8, !tbaa !52
  %63 = load ptr, ptr %5, align 8, !tbaa !3
  %64 = call i32 @Saig_ManRegNum(ptr noundef %63)
  %65 = load ptr, ptr %5, align 8, !tbaa !3
  %66 = call i32 @Saig_ManPiNum(ptr noundef %65)
  %67 = load i32, ptr %6, align 4, !tbaa !8
  %68 = call ptr @Abc_CexAlloc(i32 noundef %64, i32 noundef %66, i32 noundef %67)
  store ptr %68, ptr %9, align 8, !tbaa !42
  %69 = load i32, ptr %6, align 4, !tbaa !8
  %70 = sub nsw i32 %69, 1
  %71 = load ptr, ptr %9, align 8, !tbaa !42
  %72 = getelementptr inbounds nuw %struct.Abc_Cex_t_, ptr %71, i32 0, i32 1
  store i32 %70, ptr %72, align 4, !tbaa !53
  %73 = load ptr, ptr %9, align 8, !tbaa !42
  %74 = getelementptr inbounds nuw %struct.Abc_Cex_t_, ptr %73, i32 0, i32 0
  store i32 0, ptr %74, align 4, !tbaa !55
  store i32 0, ptr %17, align 4, !tbaa !8
  br label %75

75:                                               ; preds = %96, %54
  %76 = load i32, ptr %17, align 4, !tbaa !8
  %77 = load ptr, ptr %15, align 8, !tbaa !46
  %78 = call i32 @Vec_IntSize(ptr noundef %77)
  %79 = icmp slt i32 %76, %78
  br i1 %79, label %80, label %99

80:                                               ; preds = %75
  %81 = load ptr, ptr %18, align 8, !tbaa !52
  %82 = load i32, ptr %17, align 4, !tbaa !8
  %83 = sext i32 %82 to i64
  %84 = getelementptr inbounds i32, ptr %81, i64 %83
  %85 = load i32, ptr %84, align 4, !tbaa !8
  %86 = icmp ne i32 %85, 0
  br i1 %86, label %87, label %95

87:                                               ; preds = %80
  %88 = load ptr, ptr %9, align 8, !tbaa !42
  %89 = getelementptr inbounds nuw %struct.Abc_Cex_t_, ptr %88, i32 0, i32 5
  %90 = getelementptr inbounds [0 x i32], ptr %89, i64 0, i64 0
  %91 = load ptr, ptr %5, align 8, !tbaa !3
  %92 = call i32 @Saig_ManRegNum(ptr noundef %91)
  %93 = load i32, ptr %17, align 4, !tbaa !8
  %94 = add nsw i32 %92, %93
  call void @Abc_InfoSetBit(ptr noundef %90, i32 noundef %94)
  br label %95

95:                                               ; preds = %87, %80
  br label %96

96:                                               ; preds = %95
  %97 = load i32, ptr %17, align 4, !tbaa !8
  %98 = add nsw i32 %97, 1
  store i32 %98, ptr %17, align 4, !tbaa !8
  br label %75, !llvm.loop !56

99:                                               ; preds = %75
  %100 = load ptr, ptr %18, align 8, !tbaa !52
  %101 = icmp ne ptr %100, null
  br i1 %101, label %102, label %104

102:                                              ; preds = %99
  %103 = load ptr, ptr %18, align 8, !tbaa !52
  call void @free(ptr noundef %103) #7
  store ptr null, ptr %18, align 8, !tbaa !52
  br label %105

104:                                              ; preds = %99
  br label %105

105:                                              ; preds = %104, %102
  call void @llvm.lifetime.end.p0(i64 8, ptr %18) #7
  call void @llvm.lifetime.end.p0(i64 4, ptr %17) #7
  br label %106

106:                                              ; preds = %105, %47
  %107 = load ptr, ptr %11, align 8, !tbaa !47
  call void @sat_solver_delete(ptr noundef %107)
  %108 = load ptr, ptr %15, align 8, !tbaa !46
  call void @Vec_IntFree(ptr noundef %108)
  %109 = load ptr, ptr %5, align 8, !tbaa !3
  %110 = load ptr, ptr %9, align 8, !tbaa !42
  %111 = call i32 @Saig_ManVerifyCex(ptr noundef %109, ptr noundef %110)
  store i32 %111, ptr %13, align 4, !tbaa !8
  %112 = load i32, ptr %13, align 4, !tbaa !8
  %113 = icmp eq i32 %112, 0
  br i1 %113, label %114, label %116

114:                                              ; preds = %106
  %115 = call i32 (ptr, ...) @printf(ptr noundef @.str.2)
  br label %116

116:                                              ; preds = %114, %106
  %117 = load i32, ptr %7, align 4, !tbaa !8
  %118 = icmp ne i32 %117, 0
  br i1 %118, label %119, label %126

119:                                              ; preds = %116
  call void (i32, ptr, ...) @Abc_Print(i32 noundef 1, ptr noundef @.str.3, ptr noundef @.str.4)
  %120 = call i64 @Abc_Clock()
  %121 = load i64, ptr %14, align 8, !tbaa !43
  %122 = sub nsw i64 %120, %121
  %123 = sitofp i64 %122 to double
  %124 = fmul double 1.000000e+00, %123
  %125 = fdiv double %124, 1.000000e+06
  call void (i32, ptr, ...) @Abc_Print(i32 noundef 1, ptr noundef @.str.5, double noundef %125)
  br label %126

126:                                              ; preds = %119, %116
  %127 = load ptr, ptr %9, align 8, !tbaa !42
  store ptr %127, ptr %4, align 8
  store i32 1, ptr %16, align 4
  br label %128

128:                                              ; preds = %126, %44, %35
  call void @llvm.lifetime.end.p0(i64 8, ptr %15) #7
  call void @llvm.lifetime.end.p0(i64 8, ptr %14) #7
  call void @llvm.lifetime.end.p0(i64 4, ptr %13) #7
  call void @llvm.lifetime.end.p0(i64 8, ptr %12) #7
  call void @llvm.lifetime.end.p0(i64 8, ptr %11) #7
  call void @llvm.lifetime.end.p0(i64 8, ptr %10) #7
  call void @llvm.lifetime.end.p0(i64 8, ptr %9) #7
  call void @llvm.lifetime.end.p0(i64 4, ptr %8) #7
  %129 = load ptr, ptr %4, align 8
  ret ptr %129
}