; Function Attrs: nounwind uwtable
define noundef ptr @Inter_ManGetCounterExample(ptr noundef %0, i32 noundef %1, i32 noundef %2) local_unnamed_addr #0 {
  %4 = alloca %struct.timespec, align 8
  %5 = alloca %struct.timespec, align 8
  call void @llvm.lifetime.start.p0(i64 16, ptr nonnull %5) #10
  %6 = call i32 @clock_gettime(i32 noundef 1, ptr noundef nonnull %5) #10
  %7 = icmp slt i32 %6, 0
  br i1 %7, label %Abc_Clock.exit, label %8

8:                                                ; preds = %3
  %9 = load i64, ptr %5, align 8, !tbaa !41
  %.neg62 = mul i64 %9, -1000000
  %10 = getelementptr inbounds nuw i8, ptr %5, i64 8
  %11 = load i64, ptr %10, align 8, !tbaa !43
  %.neg = sdiv i64 %11, -1000
  %.neg63 = add i64 %.neg, %.neg62
  br label %Abc_Clock.exit

Abc_Clock.exit:                                   ; preds = %3, %8
  %.0.i.neg = phi i64 [ %.neg63, %8 ], [ 1, %3 ]
  call void @llvm.lifetime.end.p0(i64 16, ptr nonnull %5) #10
  %12 = call ptr @Inter_ManFramesBmc(ptr noundef %0, i32 noundef %1)
  %13 = call ptr @Cnf_Derive(ptr noundef %12, i32 noundef 0) #10
  call void @Cnf_DataTranformPolarity(ptr noundef %13, i32 noundef 0) #10
  %14 = call ptr @Cnf_DataCollectPiSatNums(ptr noundef %13, ptr noundef %12) #10
  call void @Aig_ManStop(ptr noundef %12) #10
  %15 = call ptr @Cnf_DataWriteIntoSolver(ptr noundef %13, i32 noundef 1, i32 noundef 0) #10
  call void @Cnf_DataFree(ptr noundef %13) #10
  %16 = icmp eq ptr %15, null
  br i1 %16, label %17, label %21

17:                                               ; preds = %Abc_Clock.exit
  %puts51 = call i32 @puts(ptr nonnull dereferenceable(1) @str.1)
  %puts52 = call i32 @puts(ptr nonnull dereferenceable(1) @str.2)
  %18 = getelementptr inbounds nuw i8, ptr %14, i64 8
  %19 = load ptr, ptr %18, align 8, !tbaa !44
  %.not.i = icmp eq ptr %19, null
  br i1 %.not.i, label %Vec_IntFree.exit, label %20

20:                                               ; preds = %17
  call void @free(ptr noundef nonnull %19) #10
  br label %Vec_IntFree.exit

Vec_IntFree.exit:                                 ; preds = %17, %20
  call void @free(ptr noundef nonnull %14) #10
  br label %81

21:                                               ; preds = %Abc_Clock.exit
  %22 = call i32 @sat_solver_simplify(ptr noundef nonnull %15) #10
  %23 = icmp eq i32 %22, 0
  br i1 %23, label %24, label %28

24:                                               ; preds = %21
  %25 = getelementptr inbounds nuw i8, ptr %14, i64 8
  %26 = load ptr, ptr %25, align 8, !tbaa !44
  %.not.i56 = icmp eq ptr %26, null
  br i1 %.not.i56, label %Vec_IntFree.exit57, label %27

27:                                               ; preds = %24
  call void @free(ptr noundef nonnull %26) #10
  br label %Vec_IntFree.exit57

Vec_IntFree.exit57:                               ; preds = %24, %27
  call void @free(ptr noundef nonnull %14) #10
  call void @sat_solver_delete(ptr noundef nonnull %15) #10
  br label %81

28:                                               ; preds = %21
  %29 = call i32 @sat_solver_solve(ptr noundef nonnull %15, ptr noundef null, ptr noundef null, i64 noundef 1000000, i64 noundef 0, i64 noundef 0, i64 noundef 0) #10
  %30 = icmp eq i32 %29, 1
  br i1 %30, label %31, label %60

31:                                               ; preds = %28
  %32 = getelementptr inbounds nuw i8, ptr %14, i64 8
  %33 = load ptr, ptr %32, align 8, !tbaa !44
  %34 = getelementptr inbounds nuw i8, ptr %14, i64 4
  %35 = load i32, ptr %34, align 4, !tbaa !46
  %36 = call ptr @Sat_SolverGetModel(ptr noundef nonnull %15, ptr noundef %33, i32 noundef %35) #10
  %37 = getelementptr i8, ptr %0, i64 104
  %.val53 = load i32, ptr %37, align 8, !tbaa !23
  %38 = getelementptr i8, ptr %0, i64 108
  %.val54 = load i32, ptr %38, align 4, !tbaa !25
  %39 = call ptr @Abc_CexAlloc(i32 noundef %.val53, i32 noundef %.val54, i32 noundef %1) #10
  %40 = add nsw i32 %1, -1
  %41 = getelementptr inbounds nuw i8, ptr %39, i64 4
  store i32 %40, ptr %41, align 4, !tbaa !47
  store i32 0, ptr %39, align 4, !tbaa !49
  %.val5564 = load i32, ptr %34, align 4, !tbaa !46
  %42 = icmp sgt i32 %.val5564, 0
  br i1 %42, label %.lr.ph, label %._crit_edge

.lr.ph:                                           ; preds = %31
  %43 = getelementptr inbounds nuw i8, ptr %39, i64 20
  br label %44

44:                                               ; preds = %.lr.ph, %57
  %.val5567 = phi i32 [ %.val5564, %.lr.ph ], [ %.val55, %57 ]
  %indvars.iv = phi i64 [ 0, %.lr.ph ], [ %indvars.iv.next, %57 ]
  %45 = getelementptr inbounds nuw i32, ptr %36, i64 %indvars.iv
  %46 = load i32, ptr %45, align 4, !tbaa !3
  %.not50 = icmp eq i32 %46, 0
  br i1 %.not50, label %57, label %47

47:                                               ; preds = %44
  %.val = load i32, ptr %37, align 8, !tbaa !23
  %48 = trunc nuw nsw i64 %indvars.iv to i32
  %49 = add nsw i32 %.val, %48
  %50 = and i32 %49, 31
  %51 = shl nuw i32 1, %50
  %52 = ashr i32 %49, 5
  %53 = sext i32 %52 to i64
  %54 = getelementptr inbounds i32, ptr %43, i64 %53
  %55 = load i32, ptr %54, align 4, !tbaa !3
  %56 = or i32 %51, %55
  store i32 %56, ptr %54, align 4, !tbaa !3
  %.val55.pre = load i32, ptr %34, align 4, !tbaa !46
  br label %57

57:                                               ; preds = %44, %47
  %.val55 = phi i32 [ %.val5567, %44 ], [ %.val55.pre, %47 ]
  %indvars.iv.next = add nuw nsw i64 %indvars.iv, 1
  %58 = sext i32 %.val55 to i64
  %59 = icmp slt i64 %indvars.iv.next, %58
  br i1 %59, label %44, label %._crit_edge.thread, !llvm.loop !50

._crit_edge:                                      ; preds = %31
  %.not = icmp eq ptr %36, null
  br i1 %.not, label %60, label %._crit_edge.thread

._crit_edge.thread:                               ; preds = %57, %._crit_edge
  call void @free(ptr noundef nonnull %36) #10
  br label %60

60:                                               ; preds = %._crit_edge.thread, %._crit_edge, %28
  %.046 = phi ptr [ null, %28 ], [ %39, %._crit_edge ], [ %39, %._crit_edge.thread ]
  call void @sat_solver_delete(ptr noundef nonnull %15) #10
  %61 = getelementptr inbounds nuw i8, ptr %14, i64 8
  %62 = load ptr, ptr %61, align 8, !tbaa !44
  %.not.i58 = icmp eq ptr %62, null
  br i1 %.not.i58, label %Vec_IntFree.exit59, label %63

63:                                               ; preds = %60
  call void @free(ptr noundef nonnull %62) #10
  br label %Vec_IntFree.exit59

Vec_IntFree.exit59:                               ; preds = %60, %63
  call void @free(ptr noundef nonnull %14) #10
  %64 = call i32 @Saig_ManVerifyCex(ptr noundef %0, ptr noundef %.046) #10
  %65 = icmp eq i32 %64, 0
  br i1 %65, label %66, label %67

66:                                               ; preds = %Vec_IntFree.exit59
  %puts = call i32 @puts(ptr nonnull dereferenceable(1) @str)
  br label %67

67:                                               ; preds = %66, %Vec_IntFree.exit59
  %.not49 = icmp eq i32 %2, 0
  br i1 %.not49, label %81, label %68

68:                                               ; preds = %67
  call void (i32, ptr, ...) @Abc_Print(i32 poison, ptr noundef nonnull @.str.3, ptr noundef nonnull @.str.4)
  call void @llvm.lifetime.start.p0(i64 16, ptr nonnull %4) #10
  %69 = call i32 @clock_gettime(i32 noundef 1, ptr noundef nonnull %4) #10
  %70 = icmp slt i32 %69, 0
  br i1 %70, label %Abc_Clock.exit61, label %71

71:                                               ; preds = %68
  %72 = load i64, ptr %4, align 8, !tbaa !41
  %73 = mul nsw i64 %72, 1000000
  %74 = getelementptr inbounds nuw i8, ptr %4, i64 8
  %75 = load i64, ptr %74, align 8, !tbaa !43
  %76 = sdiv i64 %75, 1000
  %77 = add nsw i64 %76, %73
  br label %Abc_Clock.exit61

Abc_Clock.exit61:                                 ; preds = %68, %71
  %.0.i60 = phi i64 [ %77, %71 ], [ -1, %68 ]
  call void @llvm.lifetime.end.p0(i64 16, ptr nonnull %4) #10
  %78 = add i64 %.0.i60, %.0.i.neg
  %79 = sitofp i64 %78 to double
  %80 = fdiv double %79, 1.000000e+06
  call void (i32, ptr, ...) @Abc_Print(i32 poison, ptr noundef nonnull @.str.5, double noundef %80)
  br label %81

81:                                               ; preds = %67, %Abc_Clock.exit61, %Vec_IntFree.exit57, %Vec_IntFree.exit
  %.045 = phi ptr [ null, %Vec_IntFree.exit ], [ null, %Vec_IntFree.exit57 ], [ %.046, %Abc_Clock.exit61 ], [ %.046, %67 ]
  ret ptr %.045
}